target datalayout = "e-m:e-p270:32:32-p271:32:32-p272:64:64-i64:64-i128:128-f80:128-n8:16:32:64-S128"
target triple = "x86_64-pc-linux-gnu"

%struct.AVInteger = type { [8 x i16] }

; Function Attrs: nounwind willreturn memory(none) uwtable
define { i64, i64 } @av_int2i(i64 noundef %0) #0 {
  %2 = alloca %struct.AVInteger, align 2
  %3 = alloca i64, align 8
  %4 = alloca i32, align 4
  store i64 %0, ptr %3, align 8, !tbaa !24
  call void @llvm.lifetime.start.p0(i64 4, ptr %4) #6
  store i32 0, ptr %4, align 4, !tbaa !4
  br label %5

5:                                                ; preds = %17, %1
  %6 = load i32, ptr %4, align 4, !tbaa !4
  %7 = icmp slt i32 %6, 8
  br i1 %7, label %8, label %20

8:                                                ; preds = %5
  %9 = load i64, ptr %3, align 8, !tbaa !24
  %10 = trunc i64 %9 to i16
  %11 = getelementptr inbounds nuw %struct.AVInteger, ptr %2, i32 0, i32 0
  %12 = load i32, ptr %4, align 4, !tbaa !4
  %13 = sext i32 %12 to i64
  %14 = getelementptr inbounds [8 x i16], ptr %11, i64 0, i64 %13
  store i16 %10, ptr %14, align 2, !tbaa !8
  %15 = load i64, ptr %3, align 8, !tbaa !24
  %16 = ashr i64 %15, 16
  store i64 %16, ptr %3, align 8, !tbaa !24
  br label %17

17:                                               ; preds = %8
  %18 = load i32, ptr %4, align 4, !tbaa !4
  %19 = add nsw i32 %18, 1
  store i32 %19, ptr %4, align 4, !tbaa !4
  br label %5, !llvm.loop !26

20:                                               ; preds = %5
  call void @llvm.lifetime.end.p0(i64 4, ptr %4) #6
  %21 = getelementptr inbounds nuw %struct.AVInteger, ptr %2, i32 0, i32 0
  %22 = load { i64, i64 }, ptr %21, align 2
  ret { i64, i64 } %22
}