; Function Attrs: mustprogress nofree norecurse nosync nounwind willreturn memory(none) uwtable
define { i64, i64 } @av_int2i(i64 noundef %0) local_unnamed_addr #0 {
  %2 = alloca %struct.AVInteger, align 8
  br label %3

3:                                                ; preds = %1, %3
  %indvars.iv = phi i64 [ 0, %1 ], [ %indvars.iv.next, %3 ]
  %.056 = phi i64 [ %0, %1 ], [ %6, %3 ]
  %4 = trunc i64 %.056 to i16
  %5 = getelementptr inbounds nuw [8 x i16], ptr %2, i64 0, i64 %indvars.iv
  store i16 %4, ptr %5, align 2, !tbaa !4
  %6 = ashr i64 %.056, 16
  %indvars.iv.next = add nuw nsw i64 %indvars.iv, 1
  %exitcond.not = icmp eq i64 %indvars.iv.next, 8
  br i1 %exitcond.not, label %7, label %3, !llvm.loop !18

7:                                                ; preds = %3
  %.fca.0.load = load i64, ptr %2, align 8
  %.fca.0.insert = insertvalue { i64, i64 } poison, i64 %.fca.0.load, 0
  %.fca.1.gep = getelementptr inbounds nuw i8, ptr %2, i64 8
  %.fca.1.load = load i64, ptr %.fca.1.gep, align 8
  %.fca.1.insert = insertvalue { i64, i64 } %.fca.0.insert, i64 %.fca.1.load, 1
  ret { i64, i64 } %.fca.1.insert
}